; Function Attrs: mustprogress uwtable
define void @_ZNK6icu_779VTimeZone12endZonePropsERNS_9VTZWriterEaR10UErrorCode(ptr nonnull readnone align 8 captures(none) %0, ptr noundef nonnull readonly align 8 captures(none) dereferenceable(8) %1, i8 noundef signext %2, ptr noundef nonnull readonly align 4 captures(none) dereferenceable(4) %3) local_unnamed_addr #2 align 2 personality ptr @__gxx_personality_v0 {
  %5 = alloca i16, align 2
  %6 = load i32, ptr %3, align 4, !tbaa !31
  %7 = icmp slt i32 %6, 1
  br i1 %7, label %8, label %29

8:                                                ; preds = %4
  %9 = load ptr, ptr %1, align 8, !tbaa !3
  %10 = invoke noundef nonnull align 8 dereferenceable(64) ptr @_ZN6icu_7713UnicodeString8doAppendEPKDsii(ptr noundef nonnull align 8 dereferenceable(64) %9, ptr noundef nonnull @_ZN6icu_77L8ICAL_ENDE, i32 noundef 0, i32 noundef -1)
          to label %_ZN6icu_779VTZWriter5writeEPKDs.exit unwind label %11

common.resume:                                    ; preds = %27, %22, %18, %11
  %common.resume.op = phi { ptr, i32 } [ %12, %11 ], [ %19, %18 ], [ %23, %22 ], [ %28, %27 ]
  resume { ptr, i32 } %common.resume.op

11:                                               ; preds = %8
  %12 = landingpad { ptr, i32 }
          cleanup
  tail call void asm sideeffect "", "rm,~{memory},~{dirflag},~{fpsr},~{flags}"(ptr nonnull @_ZN6icu_77L8ICAL_ENDE) #16, !srcloc !12
  br label %common.resume

_ZN6icu_779VTZWriter5writeEPKDs.exit:             ; preds = %8
  tail call void asm sideeffect "", "rm,~{memory},~{dirflag},~{fpsr},~{flags}"(ptr nonnull @_ZN6icu_77L8ICAL_ENDE) #16, !srcloc !12
  %13 = load ptr, ptr %1, align 8, !tbaa !3
  call void @llvm.lifetime.start.p0(i64 2, ptr nonnull %5)
  store i16 58, ptr %5, align 2, !tbaa !10
  %14 = call noundef nonnull align 8 dereferenceable(64) ptr @_ZN6icu_7713UnicodeString8doAppendEPKDsii(ptr noundef nonnull align 8 dereferenceable(64) %13, ptr noundef nonnull %5, i32 noundef 0, i32 noundef 1)
  call void @llvm.lifetime.end.p0(i64 2, ptr nonnull %5)
  %.not6 = icmp eq i8 %2, 0
  %15 = load ptr, ptr %1, align 8, !tbaa !3
  br i1 %.not6, label %20, label %16

16:                                               ; preds = %_ZN6icu_779VTZWriter5writeEPKDs.exit
  %17 = invoke noundef nonnull align 8 dereferenceable(64) ptr @_ZN6icu_7713UnicodeString8doAppendEPKDsii(ptr noundef nonnull align 8 dereferenceable(64) %15, ptr noundef nonnull @_ZN6icu_77L13ICAL_DAYLIGHTE, i32 noundef 0, i32 noundef -1)
          to label %_ZN6icu_779VTZWriter5writeEPKDs.exit7 unwind label %18

18:                                               ; preds = %16
  %19 = landingpad { ptr, i32 }
          cleanup
  call void asm sideeffect "", "rm,~{memory},~{dirflag},~{fpsr},~{flags}"(ptr nonnull @_ZN6icu_77L13ICAL_DAYLIGHTE) #16, !srcloc !12
  br label %common.resume

_ZN6icu_779VTZWriter5writeEPKDs.exit7:            ; preds = %16
  call void asm sideeffect "", "rm,~{memory},~{dirflag},~{fpsr},~{flags}"(ptr nonnull @_ZN6icu_77L13ICAL_DAYLIGHTE) #16, !srcloc !12
  br label %24

20:                                               ; preds = %_ZN6icu_779VTZWriter5writeEPKDs.exit
  %21 = invoke noundef nonnull align 8 dereferenceable(64) ptr @_ZN6icu_7713UnicodeString8doAppendEPKDsii(ptr noundef nonnull align 8 dereferenceable(64) %15, ptr noundef nonnull @_ZN6icu_77L13ICAL_STANDARDE, i32 noundef 0, i32 noundef -1)
          to label %_ZN6icu_779VTZWriter5writeEPKDs.exit8 unwind label %22

22:                                               ; preds = %20
  %23 = landingpad { ptr, i32 }
          cleanup
  call void asm sideeffect "", "rm,~{memory},~{dirflag},~{fpsr},~{flags}"(ptr nonnull @_ZN6icu_77L13ICAL_STANDARDE) #16, !srcloc !12
  br label %common.resume

_ZN6icu_779VTZWriter5writeEPKDs.exit8:            ; preds = %20
  call void asm sideeffect "", "rm,~{memory},~{dirflag},~{fpsr},~{flags}"(ptr nonnull @_ZN6icu_77L13ICAL_STANDARDE) #16, !srcloc !12
  br label %24

24:                                               ; preds = %_ZN6icu_779VTZWriter5writeEPKDs.exit8, %_ZN6icu_779VTZWriter5writeEPKDs.exit7
  %25 = load ptr, ptr %1, align 8, !tbaa !3
  %26 = invoke noundef nonnull align 8 dereferenceable(64) ptr @_ZN6icu_7713UnicodeString8doAppendEPKDsii(ptr noundef nonnull align 8 dereferenceable(64) %25, ptr noundef nonnull @_ZN6icu_77L12ICAL_NEWLINEE, i32 noundef 0, i32 noundef -1)
          to label %_ZN6icu_779VTZWriter5writeEPKDs.exit9 unwind label %27

27:                                               ; preds = %24
  %28 = landingpad { ptr, i32 }
          cleanup
  call void asm sideeffect "", "rm,~{memory},~{dirflag},~{fpsr},~{flags}"(ptr nonnull @_ZN6icu_77L12ICAL_NEWLINEE) #16, !srcloc !12
  br label %common.resume

_ZN6icu_779VTZWriter5writeEPKDs.exit9:            ; preds = %24
  call void asm sideeffect "", "rm,~{memory},~{dirflag},~{fpsr},~{flags}"(ptr nonnull @_ZN6icu_77L12ICAL_NEWLINEE) #16, !srcloc !12
  br label %29

29:                                               ; preds = %4, %_ZN6icu_779VTZWriter5writeEPKDs.exit9
  ret void
}